target datalayout = "e-m:e-p270:32:32-p271:32:32-p272:64:64-i64:64-i128:128-f80:128-n8:16:32:64-S128"
target triple = "x86_64-pc-linux-gnu"

%"class.icu_77::LocalPointer" = type { %"class.icu_77::LocalPointerBase" }
%"class.icu_77::LocalPointerBase" = type { ptr }
%"class.icu_77::LocalPointer.1" = type { %"class.icu_77::LocalPointerBase.2" }
%"class.icu_77::LocalPointerBase.2" = type { ptr }

@_ZN6icu_7725ScientificNumberFormatterC1EPNS_13DecimalFormatEPNS0_5StyleER10UErrorCode = unnamed_addr alias void (ptr, ptr, ptr, ptr), ptr @_ZN6icu_7725ScientificNumberFormatterC2EPNS_13DecimalFormatEPNS0_5StyleER10UErrorCode

; Function Attrs: mustprogress nounwind uwtable
define linkonce_odr void @_ZN6icu_7716LocalPointerBaseINS_13DecimalFormatEED2Ev(ptr noundef nonnull align 8 dereferenceable(8) %0) unnamed_addr #6 comdat align 2 {
  %2 = alloca ptr, align 8
  store ptr %0, ptr %2, align 8, !tbaa !29
  ret void
}

; Function Attrs: mustprogress nounwind uwtable
define linkonce_odr void @_ZN6icu_7716LocalPointerBaseINS_25ScientificNumberFormatter5StyleEED2Ev(ptr noundef nonnull align 8 dereferenceable(8) %0) unnamed_addr #6 comdat align 2 {
  %2 = alloca ptr, align 8
  store ptr %0, ptr %2, align 8, !tbaa !33
  ret void
}

; Function Attrs: mustprogress nounwind uwtable
define linkonce_odr void @_ZN6icu_7716LocalPointerBaseINS_25ScientificNumberFormatter5StyleEEC2EPS2_(ptr noundef nonnull align 8 dereferenceable(8) %0, ptr noundef %1) unnamed_addr #6 comdat align 2 {
  %3 = alloca ptr, align 8
  %4 = alloca ptr, align 8
  store ptr %0, ptr %3, align 8, !tbaa !33
  store ptr %1, ptr %4, align 8, !tbaa !9
  %5 = load ptr, ptr %3, align 8
  %6 = getelementptr inbounds nuw %"class.icu_77::LocalPointerBase.2", ptr %5, i32 0, i32 0
  %7 = load ptr, ptr %4, align 8, !tbaa !9
  store ptr %7, ptr %6, align 8, !tbaa !35
  ret void
}

; Function Attrs: mustprogress nounwind uwtable
define linkonce_odr void @_ZN6icu_7716LocalPointerBaseINS_13DecimalFormatEEC2EPS1_(ptr noundef nonnull align 8 dereferenceable(8) %0, ptr noundef %1) unnamed_addr #6 comdat align 2 {
  %3 = alloca ptr, align 8
  %4 = alloca ptr, align 8
  store ptr %0, ptr %3, align 8, !tbaa !29
  store ptr %1, ptr %4, align 8, !tbaa !3
  %5 = load ptr, ptr %3, align 8
  %6 = getelementptr inbounds nuw %"class.icu_77::LocalPointerBase", ptr %5, i32 0, i32 0
  %7 = load ptr, ptr %4, align 8, !tbaa !3
  store ptr %7, ptr %6, align 8, !tbaa !31
  ret void
}

; Function Attrs: mustprogress nounwind uwtable
define linkonce_odr void @_ZN6icu_7712LocalPointerINS_13DecimalFormatEED2Ev(ptr noundef nonnull align 8 dereferenceable(8) %0) unnamed_addr #6 comdat align 2 {
  %2 = alloca ptr, align 8
  store ptr %0, ptr %2, align 8, !tbaa !25
  %3 = load ptr, ptr %2, align 8
  %4 = getelementptr inbounds nuw %"class.icu_77::LocalPointerBase", ptr %3, i32 0, i32 0
  %5 = load ptr, ptr %4, align 8, !tbaa !31
  %6 = icmp eq ptr %5, null
  br i1 %6, label %11, label %7

7:                                                ; preds = %1
  %8 = load ptr, ptr %5, align 8, !tbaa !15
  %9 = getelementptr inbounds ptr, ptr %8, i64 1
  %10 = load ptr, ptr %9, align 8
  call void %10(ptr noundef nonnull align 8 dereferenceable(72) %5) #9
  br label %11

11:                                               ; preds = %7, %1
  call void @_ZN6icu_7716LocalPointerBaseINS_13DecimalFormatEED2Ev(ptr noundef nonnull align 8 dereferenceable(8) %3) #9
  ret void
}

; Function Attrs: mustprogress nounwind uwtable
define linkonce_odr void @_ZN6icu_7712LocalPointerINS_25ScientificNumberFormatter5StyleEED2Ev(ptr noundef nonnull align 8 dereferenceable(8) %0) unnamed_addr #6 comdat align 2 {
  %2 = alloca ptr, align 8
  store ptr %0, ptr %2, align 8, !tbaa !27
  %3 = load ptr, ptr %2, align 8
  %4 = getelementptr inbounds nuw %"class.icu_77::LocalPointerBase.2", ptr %3, i32 0, i32 0
  %5 = load ptr, ptr %4, align 8, !tbaa !35
  %6 = icmp eq ptr %5, null
  br i1 %6, label %11, label %7

7:                                                ; preds = %1
  %8 = load ptr, ptr %5, align 8, !tbaa !15
  %9 = getelementptr inbounds ptr, ptr %8, i64 1
  %10 = load ptr, ptr %9, align 8
  call void %10(ptr noundef nonnull align 8 dereferenceable(8) %5) #9
  br label %11

11:                                               ; preds = %7, %1
  call void @_ZN6icu_7716LocalPointerBaseINS_25ScientificNumberFormatter5StyleEED2Ev(ptr noundef nonnull align 8 dereferenceable(8) %3) #9
  ret void
}

; Function Attrs: mustprogress nounwind uwtable
define linkonce_odr noundef ptr @_ZN6icu_7716LocalPointerBaseINS_25ScientificNumberFormatter5StyleEE6orphanEv(ptr noundef nonnull align 8 dereferenceable(8) %0) #6 comdat align 2 {
  %2 = alloca ptr, align 8
  %3 = alloca ptr, align 8
  store ptr %0, ptr %2, align 8, !tbaa !33
  %4 = load ptr, ptr %2, align 8
  call void @llvm.lifetime.start.p0(i64 8, ptr %3) #9
  %5 = getelementptr inbounds nuw %"class.icu_77::LocalPointerBase.2", ptr %4, i32 0, i32 0
  %6 = load ptr, ptr %5, align 8, !tbaa !35
  store ptr %6, ptr %3, align 8, !tbaa !9
  %7 = getelementptr inbounds nuw %"class.icu_77::LocalPointerBase.2", ptr %4, i32 0, i32 0
  store ptr null, ptr %7, align 8, !tbaa !35
  %8 = load ptr, ptr %3, align 8, !tbaa !9
  call void @llvm.lifetime.end.p0(i64 8, ptr %3) #9
  ret ptr %8
}

; Function Attrs: mustprogress nounwind uwtable
define linkonce_odr noundef ptr @_ZN6icu_7716LocalPointerBaseINS_13DecimalFormatEE6orphanEv(ptr noundef nonnull align 8 dereferenceable(8) %0) #6 comdat align 2 {
  %2 = alloca ptr, align 8
  %3 = alloca ptr, align 8
  store ptr %0, ptr %2, align 8, !tbaa !29
  %4 = load ptr, ptr %2, align 8
  call void @llvm.lifetime.start.p0(i64 8, ptr %3) #9
  %5 = getelementptr inbounds nuw %"class.icu_77::LocalPointerBase", ptr %4, i32 0, i32 0
  %6 = load ptr, ptr %5, align 8, !tbaa !31
  store ptr %6, ptr %3, align 8, !tbaa !3
  %7 = getelementptr inbounds nuw %"class.icu_77::LocalPointerBase", ptr %4, i32 0, i32 0
  store ptr null, ptr %7, align 8, !tbaa !31
  %8 = load ptr, ptr %3, align 8, !tbaa !3
  call void @llvm.lifetime.end.p0(i64 8, ptr %3) #9
  ret ptr %8
}

; Function Attrs: mustprogress nounwind uwtable
define linkonce_odr noundef ptr @_ZNK6icu_7716LocalPointerBaseINS_25ScientificNumberFormatter5StyleEE8getAliasEv(ptr noundef nonnull align 8 dereferenceable(8) %0) #6 comdat align 2 {
  %2 = alloca ptr, align 8
  store ptr %0, ptr %2, align 8, !tbaa !33
  %3 = load ptr, ptr %2, align 8
  %4 = getelementptr inbounds nuw %"class.icu_77::LocalPointerBase.2", ptr %3, i32 0, i32 0
  %5 = load ptr, ptr %4, align 8, !tbaa !35
  ret ptr %5
}

; Function Attrs: mustprogress nounwind uwtable
define linkonce_odr noundef ptr @_ZNK6icu_7716LocalPointerBaseINS_13DecimalFormatEE8getAliasEv(ptr noundef nonnull align 8 dereferenceable(8) %0) #6 comdat align 2 {
  %2 = alloca ptr, align 8
  store ptr %0, ptr %2, align 8, !tbaa !29
  %3 = load ptr, ptr %2, align 8
  %4 = getelementptr inbounds nuw %"class.icu_77::LocalPointerBase", ptr %3, i32 0, i32 0
  %5 = load ptr, ptr %4, align 8, !tbaa !31
  ret ptr %5
}

; Function Attrs: inlinehint mustprogress nounwind uwtable
define internal noundef signext i8 @_ZL9U_FAILURE10UErrorCode(i32 noundef %0) #3 {
  %2 = alloca i32, align 4
  store i32 %0, ptr %2, align 4, !tbaa !11
  %3 = load i32, ptr %2, align 4, !tbaa !11
  %4 = icmp sgt i32 %3, 0
  %5 = zext i1 %4 to i8
  ret i8 %5
}

; Function Attrs: mustprogress uwtable
define linkonce_odr void @_ZN6icu_7712LocalPointerINS_25ScientificNumberFormatter5StyleEEC2EPS2_(ptr noundef nonnull align 8 dereferenceable(8) %0, ptr noundef %1) unnamed_addr #0 comdat align 2 {
  %3 = alloca ptr, align 8
  %4 = alloca ptr, align 8
  store ptr %0, ptr %3, align 8, !tbaa !27
  store ptr %1, ptr %4, align 8, !tbaa !9
  %5 = load ptr, ptr %3, align 8
  %6 = load ptr, ptr %4, align 8, !tbaa !9
  call void @_ZN6icu_7716LocalPointerBaseINS_25ScientificNumberFormatter5StyleEEC2EPS2_(ptr noundef nonnull align 8 dereferenceable(8) %5, ptr noundef %6)
  ret void
}

; Function Attrs: mustprogress uwtable
define linkonce_odr void @_ZN6icu_7712LocalPointerINS_13DecimalFormatEEC2EPS1_(ptr noundef nonnull align 8 dereferenceable(8) %0, ptr noundef %1) unnamed_addr #0 comdat align 2 {
  %3 = alloca ptr, align 8
  %4 = alloca ptr, align 8
  store ptr %0, ptr %3, align 8, !tbaa !25
  store ptr %1, ptr %4, align 8, !tbaa !3
  %5 = load ptr, ptr %3, align 8
  %6 = load ptr, ptr %4, align 8, !tbaa !3
  call void @_ZN6icu_7716LocalPointerBaseINS_13DecimalFormatEEC2EPS1_(ptr noundef nonnull align 8 dereferenceable(8) %5, ptr noundef %6)
  ret void
}

; Function Attrs: mustprogress uwtable
define noundef ptr @_ZN6icu_7725ScientificNumberFormatter14createInstanceEPNS_13DecimalFormatEPNS0_5StyleER10UErrorCode(ptr noundef %0, ptr noundef %1, ptr noundef nonnull align 4 dereferenceable(4) %2) #0 align 2 personality ptr @__gxx_personality_v0 {
  %4 = alloca ptr, align 8
  %5 = alloca ptr, align 8
  %6 = alloca ptr, align 8
  %7 = alloca ptr, align 8
  %8 = alloca %"class.icu_77::LocalPointer", align 8
  %9 = alloca %"class.icu_77::LocalPointer.1", align 8
  %10 = alloca ptr, align 8
  %11 = alloca i32, align 4
  %12 = alloca i32, align 4
  %13 = alloca ptr, align 8
  %14 = alloca ptr, align 8
  %15 = alloca i1, align 1
  store ptr %0, ptr %5, align 8, !tbaa !3
  store ptr %1, ptr %6, align 8, !tbaa !9
  store ptr %2, ptr %7, align 8, !tbaa !8
  call void @llvm.lifetime.start.p0(i64 8, ptr %8) #9
  %16 = load ptr, ptr %5, align 8, !tbaa !3
  call void @_ZN6icu_7712LocalPointerINS_13DecimalFormatEEC2EPS1_(ptr noundef nonnull align 8 dereferenceable(8) %8, ptr noundef %16)
  call void @llvm.lifetime.start.p0(i64 8, ptr %9) #9
  %17 = load ptr, ptr %6, align 8, !tbaa !9
  invoke void @_ZN6icu_7712LocalPointerINS_25ScientificNumberFormatter5StyleEEC2EPS2_(ptr noundef nonnull align 8 dereferenceable(8) %9, ptr noundef %17)
          to label %18 unwind label %25

18:                                               ; preds = %3
  %19 = load ptr, ptr %7, align 8, !tbaa !8
  %20 = load i32, ptr %19, align 4, !tbaa !11
  %21 = invoke noundef signext i8 @_ZL9U_FAILURE10UErrorCode(i32 noundef %20)
          to label %22 unwind label %29

22:                                               ; preds = %18
  %23 = icmp ne i8 %21, 0
  br i1 %23, label %24, label %33

24:                                               ; preds = %22
  store ptr null, ptr %4, align 8
  store i32 1, ptr %12, align 4
  br label %83

25:                                               ; preds = %3
  %26 = landingpad { ptr, i32 }
          cleanup
  %27 = extractvalue { ptr, i32 } %26, 0
  store ptr %27, ptr %10, align 8
  %28 = extractvalue { ptr, i32 } %26, 1
  store i32 %28, ptr %11, align 4
  br label %86

29:                                               ; preds = %18
  %30 = landingpad { ptr, i32 }
          cleanup
  %31 = extractvalue { ptr, i32 } %30, 0
  store ptr %31, ptr %10, align 8
  %32 = extractvalue { ptr, i32 } %30, 1
  store i32 %32, ptr %11, align 4
  br label %85

33:                                               ; preds = %22
  call void @llvm.lifetime.start.p0(i64 8, ptr %13) #9
  %34 = call noundef ptr @_ZN6icu_777UMemorynwEm(i64 noundef 88) #9
  %35 = icmp eq ptr %34, null
  store i1 false, ptr %15, align 1
  br i1 %35, label %43, label %36

36:                                               ; preds = %33
  store ptr %34, ptr %14, align 8
  store i1 true, ptr %15, align 1
  %37 = invoke noundef ptr @_ZNK6icu_7716LocalPointerBaseINS_13DecimalFormatEE8getAliasEv(ptr noundef nonnull align 8 dereferenceable(8) %8)
          to label %38 unwind label %49

38:                                               ; preds = %36
  %39 = invoke noundef ptr @_ZNK6icu_7716LocalPointerBaseINS_25ScientificNumberFormatter5StyleEE8getAliasEv(ptr noundef nonnull align 8 dereferenceable(8) %9)
          to label %40 unwind label %49

40:                                               ; preds = %38
  %41 = load ptr, ptr %7, align 8, !tbaa !8
  invoke void @_ZN6icu_7725ScientificNumberFormatterC1EPNS_13DecimalFormatEPNS0_5StyleER10UErrorCode(ptr noundef nonnull align 8 dereferenceable(88) %34, ptr noundef %37, ptr noundef %39, ptr noundef nonnull align 4 dereferenceable(4) %41)
          to label %42 unwind label %49

42:                                               ; preds = %40
  br label %43

43:                                               ; preds = %42, %33
  %44 = phi ptr [ %34, %42 ], [ null, %33 ]
  store ptr %44, ptr %13, align 8, !tbaa !13
  %45 = load ptr, ptr %13, align 8, !tbaa !13
  %46 = icmp eq ptr %45, null
  br i1 %46, label %47, label %57

47:                                               ; preds = %43
  %48 = load ptr, ptr %7, align 8, !tbaa !8
  store i32 7, ptr %48, align 4, !tbaa !11
  store ptr null, ptr %4, align 8
  store i32 1, ptr %12, align 4
  br label %81

49:                                               ; preds = %40, %38, %36
  %50 = landingpad { ptr, i32 }
          cleanup
  %51 = extractvalue { ptr, i32 } %50, 0
  store ptr %51, ptr %10, align 8
  %52 = extractvalue { ptr, i32 } %50, 1
  store i32 %52, ptr %11, align 4
  %53 = load i1, ptr %15, align 1
  br i1 %53, label %54, label %56

54:                                               ; preds = %49
  %55 = load ptr, ptr %14, align 8
  call void @_ZN6icu_777UMemorydlEPv(ptr noundef %55) #9
  br label %56

56:                                               ; preds = %54, %49
  br label %82

57:                                               ; preds = %43
  %58 = invoke noundef ptr @_ZN6icu_7716LocalPointerBaseINS_13DecimalFormatEE6orphanEv(ptr noundef nonnull align 8 dereferenceable(8) %8)
          to label %59 unwind label %75

59:                                               ; preds = %57
  %60 = invoke noundef ptr @_ZN6icu_7716LocalPointerBaseINS_25ScientificNumberFormatter5StyleEE6orphanEv(ptr noundef nonnull align 8 dereferenceable(8) %9)
          to label %61 unwind label %75

61:                                               ; preds = %59
  %62 = load ptr, ptr %7, align 8, !tbaa !8
  %63 = load i32, ptr %62, align 4, !tbaa !11
  %64 = invoke noundef signext i8 @_ZL9U_FAILURE10UErrorCode(i32 noundef %63)
          to label %65 unwind label %75

65:                                               ; preds = %61
  %66 = icmp ne i8 %64, 0
  br i1 %66, label %67, label %79

67:                                               ; preds = %65
  %68 = load ptr, ptr %13, align 8, !tbaa !13
  %69 = icmp eq ptr %68, null
  br i1 %69, label %74, label %70

70:                                               ; preds = %67
  %71 = load ptr, ptr %68, align 8, !tbaa !15
  %72 = getelementptr inbounds ptr, ptr %71, i64 1
  %73 = load ptr, ptr %72, align 8
  call void %73(ptr noundef nonnull align 8 dereferenceable(88) %68) #9
  br label %74

74:                                               ; preds = %70, %67
  store ptr null, ptr %4, align 8
  store i32 1, ptr %12, align 4
  br label %81

75:                                               ; preds = %61, %59, %57
  %76 = landingpad { ptr, i32 }
          cleanup
  %77 = extractvalue { ptr, i32 } %76, 0
  store ptr %77, ptr %10, align 8
  %78 = extractvalue { ptr, i32 } %76, 1
  store i32 %78, ptr %11, align 4
  br label %82

79:                                               ; preds = %65
  %80 = load ptr, ptr %13, align 8, !tbaa !13
  store ptr %80, ptr %4, align 8
  store i32 1, ptr %12, align 4
  br label %81

81:                                               ; preds = %79, %74, %47
  call void @llvm.lifetime.end.p0(i64 8, ptr %13) #9
  br label %83

82:                                               ; preds = %75, %56
  call void @llvm.lifetime.end.p0(i64 8, ptr %13) #9
  br label %85

83:                                               ; preds = %81, %24
  call void @_ZN6icu_7712LocalPointerINS_25ScientificNumberFormatter5StyleEED2Ev(ptr noundef nonnull align 8 dereferenceable(8) %9) #9
  call void @llvm.lifetime.end.p0(i64 8, ptr %9) #9
  call void @_ZN6icu_7712LocalPointerINS_13DecimalFormatEED2Ev(ptr noundef nonnull align 8 dereferenceable(8) %8) #9
  call void @llvm.lifetime.end.p0(i64 8, ptr %8) #9
  %84 = load ptr, ptr %4, align 8
  ret ptr %84

85:                                               ; preds = %82, %29
  call void @_ZN6icu_7712LocalPointerINS_25ScientificNumberFormatter5StyleEED2Ev(ptr noundef nonnull align 8 dereferenceable(8) %9) #9
  br label %86

86:                                               ; preds = %85, %25
  call void @llvm.lifetime.end.p0(i64 8, ptr %9) #9
  call void @_ZN6icu_7712LocalPointerINS_13DecimalFormatEED2Ev(ptr noundef nonnull align 8 dereferenceable(8) %8) #9
  call void @llvm.lifetime.end.p0(i64 8, ptr %8) #9
  br label %87

87:                                               ; preds = %86
  %88 = load ptr, ptr %10, align 8
  %89 = load i32, ptr %11, align 4
  %90 = insertvalue { ptr, i32 } poison, ptr %88, 0
  %91 = insertvalue { ptr, i32 } %90, i32 %89, 1
  resume { ptr, i32 } %91
}