; Function Attrs: mustprogress uwtable
define noundef ptr @_ZN6icu_7725ScientificNumberFormatter14createInstanceEPNS_13DecimalFormatEPNS0_5StyleER10UErrorCode(ptr noundef %0, ptr noundef %1, ptr noundef nonnull align 4 dereferenceable(4) %2) local_unnamed_addr #0 align 2 personality ptr @__gxx_personality_v0 {
  %4 = load i32, ptr %2, align 4, !tbaa !6
  %5 = icmp slt i32 %4, 1
  br i1 %5, label %6, label %21

6:                                                ; preds = %3
  %7 = tail call noundef ptr @_ZN6icu_777UMemorynwEm(i64 noundef 88) #7
  %8 = icmp eq ptr %7, null
  br i1 %8, label %10, label %9

9:                                                ; preds = %6
  invoke void @_ZN6icu_7725ScientificNumberFormatterC1EPNS_13DecimalFormatEPNS0_5StyleER10UErrorCode(ptr noundef nonnull align 8 dereferenceable(88) %7, ptr noundef %0, ptr noundef %1, ptr noundef nonnull align 4 dereferenceable(4) %2)
          to label %18 unwind label %11

10:                                               ; preds = %6
  store i32 7, ptr %2, align 4, !tbaa !6
  br label %21

11:                                               ; preds = %9
  %12 = landingpad { ptr, i32 }
          cleanup
  tail call void @_ZN6icu_777UMemorydlEPv(ptr noundef nonnull %7) #7
  %13 = icmp eq ptr %1, null
  br i1 %13, label %_ZN6icu_7712LocalPointerINS_25ScientificNumberFormatter5StyleEED2Ev.exit, label %14

14:                                               ; preds = %11
  %15 = load ptr, ptr %1, align 8, !tbaa !3
  %16 = getelementptr inbounds nuw i8, ptr %15, i64 8
  %17 = load ptr, ptr %16, align 8
  tail call void %17(ptr noundef nonnull align 8 dereferenceable(8) %1) #7
  br label %_ZN6icu_7712LocalPointerINS_25ScientificNumberFormatter5StyleEED2Ev.exit

18:                                               ; preds = %9
  %19 = load i32, ptr %2, align 4, !tbaa !6
  %20 = icmp slt i32 %19, 1
  br i1 %20, label %_ZN6icu_7712LocalPointerINS_13DecimalFormatEED2Ev.exit, label %_ZN6icu_7712LocalPointerINS_13DecimalFormatEED2Ev.exit.sink.split

21:                                               ; preds = %10, %3
  %22 = icmp eq ptr %1, null
  br i1 %22, label %_ZN6icu_7712LocalPointerINS_25ScientificNumberFormatter5StyleEED2Ev.exit19, label %23

23:                                               ; preds = %21
  %24 = load ptr, ptr %1, align 8, !tbaa !3
  %25 = getelementptr inbounds nuw i8, ptr %24, i64 8
  %26 = load ptr, ptr %25, align 8
  tail call void %26(ptr noundef nonnull align 8 dereferenceable(8) %1) #7
  br label %_ZN6icu_7712LocalPointerINS_25ScientificNumberFormatter5StyleEED2Ev.exit19

_ZN6icu_7712LocalPointerINS_25ScientificNumberFormatter5StyleEED2Ev.exit19: ; preds = %21, %23
  %27 = icmp eq ptr %0, null
  br i1 %27, label %_ZN6icu_7712LocalPointerINS_13DecimalFormatEED2Ev.exit, label %_ZN6icu_7712LocalPointerINS_13DecimalFormatEED2Ev.exit.sink.split

_ZN6icu_7712LocalPointerINS_13DecimalFormatEED2Ev.exit.sink.split: ; preds = %_ZN6icu_7712LocalPointerINS_25ScientificNumberFormatter5StyleEED2Ev.exit19, %18
  %.sink40 = phi ptr [ %7, %18 ], [ %0, %_ZN6icu_7712LocalPointerINS_25ScientificNumberFormatter5StyleEED2Ev.exit19 ]
  %28 = load ptr, ptr %.sink40, align 8, !tbaa !3
  %29 = getelementptr inbounds nuw i8, ptr %28, i64 8
  %30 = load ptr, ptr %29, align 8
  tail call void %30(ptr noundef nonnull align 8 dereferenceable(72) %.sink40) #7
  br label %_ZN6icu_7712LocalPointerINS_13DecimalFormatEED2Ev.exit

_ZN6icu_7712LocalPointerINS_13DecimalFormatEED2Ev.exit: ; preds = %_ZN6icu_7712LocalPointerINS_13DecimalFormatEED2Ev.exit.sink.split, %18, %_ZN6icu_7712LocalPointerINS_25ScientificNumberFormatter5StyleEED2Ev.exit19
  %.03336 = phi ptr [ null, %_ZN6icu_7712LocalPointerINS_25ScientificNumberFormatter5StyleEED2Ev.exit19 ], [ %7, %18 ], [ null, %_ZN6icu_7712LocalPointerINS_13DecimalFormatEED2Ev.exit.sink.split ]
  ret ptr %.03336

_ZN6icu_7712LocalPointerINS_25ScientificNumberFormatter5StyleEED2Ev.exit: ; preds = %14, %11
  %31 = icmp eq ptr %0, null
  br i1 %31, label %_ZN6icu_7712LocalPointerINS_13DecimalFormatEED2Ev.exit20, label %32

32:                                               ; preds = %_ZN6icu_7712LocalPointerINS_25ScientificNumberFormatter5StyleEED2Ev.exit
  %33 = load ptr, ptr %0, align 8, !tbaa !3
  %34 = getelementptr inbounds nuw i8, ptr %33, i64 8
  %35 = load ptr, ptr %34, align 8
  tail call void %35(ptr noundef nonnull align 8 dereferenceable(72) %0) #7
  br label %_ZN6icu_7712LocalPointerINS_13DecimalFormatEED2Ev.exit20

_ZN6icu_7712LocalPointerINS_13DecimalFormatEED2Ev.exit20: ; preds = %_ZN6icu_7712LocalPointerINS_25ScientificNumberFormatter5StyleEED2Ev.exit, %32
  resume { ptr, i32 } %12
}